; Function Attrs: mustprogress uwtable
define void @_ZNK10open_spiel13GameParameter18value_with_defaultINSt7__cxx1112basic_stringIcSt11char_traitsIcESaIcEEEEET_S8_(ptr dead_on_unwind noalias writable sret(%"class.std::__cxx11::basic_string") align 8 %0, ptr noundef nonnull align 8 dereferenceable(108) %1, ptr noundef %2) local_unnamed_addr #3 align 2 personality ptr @__gxx_personality_v0 {
  %4 = getelementptr inbounds nuw i8, ptr %1, i64 104
  %5 = load i32, ptr %4, align 8
  %6 = icmp eq i32 %5, 2
  br i1 %6, label %_ZNK10open_spiel13GameParameter12string_valueB5cxx11Ev.exit, label %8

_ZNK10open_spiel13GameParameter12string_valueB5cxx11Ev.exit: ; preds = %3
  %7 = getelementptr inbounds nuw i8, ptr %1, i64 16
  tail call void @_ZNSt7__cxx1112basic_stringIcSt11char_traitsIcESaIcEEC1ERKS4_(ptr noundef nonnull align 8 dereferenceable(32) %0, ptr noundef nonnull align 8 dereferenceable(32) %7)
  br label %9

8:                                                ; preds = %3
  tail call void @_ZNSt7__cxx1112basic_stringIcSt11char_traitsIcESaIcEEC1EOS4_(ptr noundef nonnull align 8 dereferenceable(32) %0, ptr noundef nonnull align 8 dereferenceable(32) %2) #20
  br label %9

9:                                                ; preds = %8, %_ZNK10open_spiel13GameParameter12string_valueB5cxx11Ev.exit
  ret void
}